; Function Attrs: nounwind uwtable
define noalias nonnull ptr @l_Lean_IR_IsLive_visitArg___boxed(ptr noundef %0, ptr noundef %1, ptr noundef %2) local_unnamed_addr #0 {
  %4 = tail call zeroext i8 @l_Lean_IR_HasIndex_visitArg(ptr noundef %0, ptr noundef %1) #4
  tail call void @lean_inc_heartbeat() #4
  %5 = tail call noalias ptr @mi_malloc_small(i64 noundef 24) #4
  %6 = icmp eq ptr %5, null
  br i1 %6, label %7, label %l_Lean_IR_IsLive_visitArg.exit

7:                                                ; preds = %3
  tail call void @lean_internal_panic_out_of_memory() #5
  unreachable

l_Lean_IR_IsLive_visitArg.exit:                   ; preds = %3
  %8 = zext i8 %4 to i64
  %9 = shl nuw nsw i64 %8, 1
  %10 = or disjoint i64 %9, 1
  %11 = inttoptr i64 %10 to ptr
  %12 = getelementptr inbounds nuw i8, ptr %5, i64 4
  store i32 1, ptr %5, align 4, !tbaa !5
  store i32 131096, ptr %12, align 4
  %13 = getelementptr inbounds nuw i8, ptr %5, i64 8
  store ptr %11, ptr %13, align 8, !tbaa !10
  %14 = getelementptr inbounds nuw i8, ptr %5, i64 16
  store ptr %2, ptr %14, align 8, !tbaa !10
  %15 = ptrtoint ptr %1 to i64
  %16 = and i64 %15, 1
  %.not = icmp eq i64 %16, 0
  br i1 %.not, label %17, label %lean_dec.exit6

17:                                               ; preds = %l_Lean_IR_IsLive_visitArg.exit
  %18 = load i32, ptr %1, align 4, !tbaa !5
  %19 = icmp sgt i32 %18, 1
  br i1 %19, label %20, label %22, !prof !14

20:                                               ; preds = %17
  %21 = add nsw i32 %18, -1
  store i32 %21, ptr %1, align 4, !tbaa !5
  br label %lean_dec.exit6

22:                                               ; preds = %17
  %.not.i = icmp eq i32 %18, 0
  br i1 %.not.i, label %lean_dec.exit6, label %23

23:                                               ; preds = %22
  tail call void @lean_dec_ref_cold(ptr noundef nonnull %1) #4
  br label %lean_dec.exit6

lean_dec.exit6:                                   ; preds = %23, %22, %20, %l_Lean_IR_IsLive_visitArg.exit
  %24 = ptrtoint ptr %0 to i64
  %25 = and i64 %24, 1
  %.not9 = icmp eq i64 %25, 0
  br i1 %.not9, label %26, label %lean_dec.exit

26:                                               ; preds = %lean_dec.exit6
  %27 = load i32, ptr %0, align 4, !tbaa !5
  %28 = icmp sgt i32 %27, 1
  br i1 %28, label %29, label %31, !prof !14

29:                                               ; preds = %26
  %30 = add nsw i32 %27, -1
  store i32 %30, ptr %0, align 4, !tbaa !5
  br label %lean_dec.exit

31:                                               ; preds = %26
  %.not.i7 = icmp eq i32 %27, 0
  br i1 %.not.i7, label %lean_dec.exit, label %32

32:                                               ; preds = %31
  tail call void @lean_dec_ref_cold(ptr noundef nonnull %0) #4
  br label %lean_dec.exit

lean_dec.exit:                                    ; preds = %32, %31, %29, %lean_dec.exit6
  ret ptr %5
}